; ModuleID = 'source-C-CXX/57/1009.c'
source_filename = "source-C-CXX/57/1009.c"
target datalayout = "e-m:e-p270:32:32-p271:32:32-p272:64:64-i64:64-f80:128-n8:16:32:64-S128"
target triple = "x86_64-pc-linux-gnu"

@.str = private unnamed_addr constant [3 x i8] c"%d\00", align 1
@str.3 = private unnamed_addr constant [2 x i8] c"1\00", align 1
@str.4 = private unnamed_addr constant [2 x i8] c"0\00", align 1

; Function Attrs: nounwind sspstrong uwtable
define dso_local void @main() local_unnamed_addr #0 {
  %1 = alloca i32, align 4
  %2 = alloca [2 x i8], align 1
  %3 = bitcast i32* %1 to i8*
  call void @llvm.lifetime.start.p0i8(i64 4, i8* nonnull %3) #6
  %4 = getelementptr inbounds [2 x i8], [2 x i8]* %2, i64 0, i64 0
  call void @llvm.lifetime.start.p0i8(i64 2, i8* nonnull %4) #6
  %5 = call i32 (i8*, ...) @__isoc99_scanf(i8* getelementptr inbounds ([3 x i8], [3 x i8]* @.str, i64 0, i64 0), i32* nonnull %1)
  %6 = call i32 (i8*, ...) bitcast (i32 (...)* @gets to i32 (i8*, ...)*)(i8* nonnull %4) #6
  %7 = load i32, i32* %1, align 4, !tbaa !5
  %8 = sext i32 %7 to i64
  %9 = mul nsw i64 %8, 81
  %10 = call noalias align 16 i8* @malloc(i64 %9) #6
  %11 = bitcast i8* %10 to [81 x i8]*
  %12 = icmp sgt i32 %7, 0
  br i1 %12, label %15, label %63

13:                                               ; preds = %15
  %14 = icmp sgt i32 %20, 0
  br i1 %14, label %23, label %63

15:                                               ; preds = %0, %15
  %16 = phi i64 [ %19, %15 ], [ 0, %0 ]
  %17 = getelementptr inbounds [81 x i8], [81 x i8]* %11, i64 %16, i64 0
  %18 = call i32 (i8*, ...) bitcast (i32 (...)* @gets to i32 (i8*, ...)*)(i8* %17) #6
  %19 = add nuw nsw i64 %16, 1
  %20 = load i32, i32* %1, align 4, !tbaa !5
  %21 = sext i32 %20 to i64
  %22 = icmp slt i64 %19, %21
  br i1 %22, label %15, label %13, !llvm.loop !9

23:                                               ; preds = %13, %56
  %24 = phi i64 [ %59, %56 ], [ 0, %13 ]
  %25 = getelementptr inbounds [81 x i8], [81 x i8]* %11, i64 %24, i64 0
  %26 = load i8, i8* %25, align 1, !tbaa !11
  %27 = add i8 %26, -97
  %28 = icmp ult i8 %27, 26
  br i1 %28, label %34, label %29

29:                                               ; preds = %23
  %30 = add i8 %26, -65
  %31 = icmp ult i8 %30, 26
  %32 = icmp eq i8 %26, 95
  %33 = or i1 %32, %31
  br i1 %33, label %34, label %56

34:                                               ; preds = %29, %23
  %35 = getelementptr inbounds [81 x i8], [81 x i8]* %11, i64 %24, i64 1
  %36 = load i8, i8* %35, align 1, !tbaa !11
  %37 = icmp eq i8 %36, 0
  br i1 %37, label %56, label %38

38:                                               ; preds = %34, %51
  %39 = phi i64 [ %52, %51 ], [ 1, %34 ]
  %40 = phi i8 [ %54, %51 ], [ %36, %34 ]
  %41 = add i8 %40, -97
  %42 = icmp ult i8 %41, 26
  br i1 %42, label %51, label %43

43:                                               ; preds = %38
  %44 = add i8 %40, -65
  %45 = icmp ult i8 %44, 26
  %46 = icmp eq i8 %40, 95
  %47 = or i1 %46, %45
  %48 = add i8 %40, -48
  %49 = icmp ult i8 %48, 10
  %50 = or i1 %49, %47
  br i1 %50, label %51, label %56

51:                                               ; preds = %43, %38
  %52 = add nuw i64 %39, 1
  %53 = getelementptr inbounds [81 x i8], [81 x i8]* %11, i64 %24, i64 %52
  %54 = load i8, i8* %53, align 1, !tbaa !11
  %55 = icmp eq i8 %54, 0
  br i1 %55, label %56, label %38, !llvm.loop !12

56:                                               ; preds = %51, %43, %29, %34
  %57 = phi i8* [ getelementptr inbounds ([2 x i8], [2 x i8]* @str.3, i64 0, i64 0), %34 ], [ getelementptr inbounds ([2 x i8], [2 x i8]* @str.4, i64 0, i64 0), %29 ], [ getelementptr inbounds ([2 x i8], [2 x i8]* @str.4, i64 0, i64 0), %43 ], [ getelementptr inbounds ([2 x i8], [2 x i8]* @str.3, i64 0, i64 0), %51 ]
  %58 = call i32 @puts(i8* nonnull dereferenceable(1) %57)
  %59 = add nuw nsw i64 %24, 1
  %60 = load i32, i32* %1, align 4, !tbaa !5
  %61 = sext i32 %60 to i64
  %62 = icmp slt i64 %59, %61
  br i1 %62, label %23, label %63, !llvm.loop !13

63:                                               ; preds = %56, %0, %13
  call void @llvm.lifetime.end.p0i8(i64 2, i8* nonnull %4) #6
  call void @llvm.lifetime.end.p0i8(i64 4, i8* nonnull %3) #6
  ret void
}

; Function Attrs: argmemonly mustprogress nofree nosync nounwind willreturn
declare void @llvm.lifetime.start.p0i8(i64 immarg, i8* nocapture) #1

; Function Attrs: nofree nounwind
declare noundef i32 @__isoc99_scanf(i8* nocapture noundef readonly, ...) local_unnamed_addr #2

declare i32 @gets(...) local_unnamed_addr #3

; Function Attrs: inaccessiblememonly mustprogress nofree nounwind willreturn
declare noalias noundef align 16 i8* @malloc(i64 noundef) local_unnamed_addr #4

; Function Attrs: argmemonly mustprogress nofree nosync nounwind willreturn
declare void @llvm.lifetime.end.p0i8(i64 immarg, i8* nocapture) #1

; Function Attrs: nofree nounwind
declare noundef i32 @puts(i8* nocapture noundef readonly) local_unnamed_addr #5


!llvm.module.flags = !{!0, !1, !2, !3}
!llvm.ident = !{!4}

!0 = !{i32 1, !"wchar_size", i32 4}
!1 = !{i32 7, !"PIC Level", i32 2}
!2 = !{i32 7, !"PIE Level", i32 2}
!3 = !{i32 7, !"uwtable", i32 1}
!4 = !{!"clang version 13.0.0"}
!5 = !{!6, !6, i64 0}
!6 = !{!"int", !7, i64 0}
!7 = !{!"omnipotent char", !8, i64 0}
!8 = !{!"Simple C/C++ TBAA"}
!9 = distinct !{!9, !10}
!10 = !{!"llvm.loop.mustprogress"}
!11 = !{!7, !7, i64 0}
!12 = distinct !{!12, !10}
!13 = distinct !{!13, !10}
